target datalayout = "e-m:e-p270:32:32-p271:32:32-p272:64:64-i64:64-i128:128-f80:128-n8:16:32:64-S128"
target triple = "x86_64-unknown-linux-gnu"

%"struct.google::protobuf::internal::BoundedZCIS" = type { ptr, i32 }

; Function Attrs: mustprogress uwtable
define linkonce_odr hidden noundef zeroext i1 @_ZN6google8protobuf11MessageLite9ParseFromILNS1_10ParseFlagsE1ENS0_8internal11BoundedZCISEEEbRKT0_(ptr noundef nonnull align 8 dereferenceable(16) %this, ptr noundef nonnull align 8 dereferenceable(16) %input) #4 comdat align 2 {
entry:
  %this.addr = alloca ptr, align 8
  %input.addr = alloca ptr, align 8
  %alias = alloca i8, align 1
  %agg.tmp = alloca %"struct.google::protobuf::internal::BoundedZCIS", align 8
  store ptr %this, ptr %this.addr, align 8
  store ptr %input, ptr %input.addr, align 8
  %this1 = load ptr, ptr %this.addr, align 8
  %vtable = load ptr, ptr %this1, align 8
  %vfn = getelementptr inbounds ptr, ptr %vtable, i64 3
  %0 = load ptr, ptr %vfn, align 8
  call void %0(ptr noundef nonnull align 8 dereferenceable(16) %this1)
  store i8 0, ptr %alias, align 1
  %1 = load ptr, ptr %input.addr, align 8
  call void @llvm.memcpy.p0.p0.i64(ptr align 8 %agg.tmp, ptr align 8 %1, i64 16, i1 false)
  %2 = getelementptr inbounds { ptr, i32 }, ptr %agg.tmp, i32 0, i32 0
  %3 = load ptr, ptr %2, align 8
  %4 = getelementptr inbounds { ptr, i32 }, ptr %agg.tmp, i32 0, i32 1
  %5 = load i32, ptr %4, align 8
  %call = call noundef zeroext i1 @_ZN6google8protobuf8internal13MergeFromImplILb0EEEbNS1_11BoundedZCISEPNS0_11MessageLiteENS4_10ParseFlagsE(ptr %3, i32 %5, ptr noundef %this1, i32 noundef 1)
  ret i1 %call
}

; Function Attrs: mustprogress uwtable
define noundef zeroext i1 @_ZN6google8protobuf11MessageLite30ParseFromBoundedZeroCopyStreamEPNS0_2io19ZeroCopyInputStreamEi(ptr noundef nonnull align 8 dereferenceable(16) %this, ptr noundef %input, i32 noundef %size) #4 align 2 {
entry:
  %this.addr = alloca ptr, align 8
  %input.addr = alloca ptr, align 8
  %size.addr = alloca i32, align 4
  %ref.tmp = alloca %"struct.google::protobuf::internal::BoundedZCIS", align 8
  store ptr %this, ptr %this.addr, align 8
  store ptr %input, ptr %input.addr, align 8
  store i32 %size, ptr %size.addr, align 4
  %this1 = load ptr, ptr %this.addr, align 8
  %zcis = getelementptr inbounds %"struct.google::protobuf::internal::BoundedZCIS", ptr %ref.tmp, i32 0, i32 0
  %0 = load ptr, ptr %input.addr, align 8
  store ptr %0, ptr %zcis, align 8
  %limit = getelementptr inbounds %"struct.google::protobuf::internal::BoundedZCIS", ptr %ref.tmp, i32 0, i32 1
  %1 = load i32, ptr %size.addr, align 4
  store i32 %1, ptr %limit, align 8
  %call = call noundef zeroext i1 @_ZN6google8protobuf11MessageLite9ParseFromILNS1_10ParseFlagsE1ENS0_8internal11BoundedZCISEEEbRKT0_(ptr noundef nonnull align 8 dereferenceable(16) %this1, ptr noundef nonnull align 8 dereferenceable(16) %ref.tmp)
  ret i1 %call
}